target datalayout = "e-m:e-p270:32:32-p271:32:32-p272:64:64-i64:64-i128:128-f80:128-n8:16:32:64-S128"
target triple = "x86_64-pc-linux-gnu"

%"class.std::vector.4" = type { %"struct.std::_Vector_base.5" }
%"struct.std::_Vector_base.5" = type { %"struct.std::_Vector_base<int, std::allocator<int>>::_Vector_impl" }
%"struct.std::_Vector_base<int, std::allocator<int>>::_Vector_impl" = type { %"struct.std::_Vector_base<int, std::allocator<int>>::_Vector_impl_data" }
%"struct.std::_Vector_base<int, std::allocator<int>>::_Vector_impl_data" = type { ptr, ptr, ptr }
%"class.LightGBM::BinMapper" = type { i32, i32, %"class.std::vector.131", i8, double, i32, %"class.std::unordered_map", %"class.std::vector.4", double, double, i32, i32 }
%"class.std::vector.131" = type { %"struct.std::_Vector_base.132" }
%"struct.std::_Vector_base.132" = type { %"struct.std::_Vector_base<double, std::allocator<double>>::_Vector_impl" }
%"struct.std::_Vector_base<double, std::allocator<double>>::_Vector_impl" = type { %"struct.std::_Vector_base<double, std::allocator<double>>::_Vector_impl_data" }
%"struct.std::_Vector_base<double, std::allocator<double>>::_Vector_impl_data" = type { ptr, ptr, ptr }
%"class.std::unordered_map" = type { %"class.std::_Hashtable" }
%"class.std::_Hashtable" = type { ptr, i64, %"struct.std::__detail::_Hash_node_base", i64, %"struct.std::__detail::_Prime_rehash_policy", ptr }
%"struct.std::__detail::_Hash_node_base" = type { ptr }
%"struct.std::__detail::_Prime_rehash_policy" = type { float, i64 }

; Function Attrs: mustprogress nounwind uwtable
define linkonce_odr noundef ptr @_ZNKSt6vectorIiSaIiEE11_M_data_ptrIiEEPT_S4_(ptr noundef nonnull align 8 dereferenceable(24) %0, ptr noundef %1) #0 comdat align 2 {
  %3 = alloca ptr, align 8
  %4 = alloca ptr, align 8
  store ptr %0, ptr %3, align 8, !tbaa !21
  store ptr %1, ptr %4, align 8, !tbaa !14
  %5 = load ptr, ptr %4, align 8, !tbaa !14
  ret ptr %5
}

; Function Attrs: mustprogress nounwind uwtable
define linkonce_odr noundef ptr @_ZNKSt6vectorIdSaIdEE11_M_data_ptrIdEEPT_S4_(ptr noundef nonnull align 8 dereferenceable(24) %0, ptr noundef %1) #0 comdat align 2 {
  %3 = alloca ptr, align 8
  %4 = alloca ptr, align 8
  store ptr %0, ptr %3, align 8, !tbaa !1289
  store ptr %1, ptr %4, align 8, !tbaa !42
  %5 = load ptr, ptr %4, align 8, !tbaa !42
  ret ptr %5
}

; Function Attrs: mustprogress nounwind uwtable
define linkonce_odr noundef ptr @_ZNKSt6vectorIiSaIiEE4dataEv(ptr noundef nonnull align 8 dereferenceable(24) %0) #0 comdat align 2 {
  %2 = alloca ptr, align 8
  store ptr %0, ptr %2, align 8, !tbaa !21
  %3 = load ptr, ptr %2, align 8
  %4 = getelementptr inbounds nuw %"struct.std::_Vector_base.5", ptr %3, i32 0, i32 0
  %5 = getelementptr inbounds nuw %"struct.std::_Vector_base<int, std::allocator<int>>::_Vector_impl_data", ptr %4, i32 0, i32 0
  %6 = load ptr, ptr %5, align 8, !tbaa !332
  %7 = call noundef ptr @_ZNKSt6vectorIiSaIiEE11_M_data_ptrIiEEPT_S4_(ptr noundef nonnull align 8 dereferenceable(24) %3, ptr noundef %6) #5
  ret ptr %7
}

; Function Attrs: mustprogress nounwind uwtable
define linkonce_odr noundef ptr @_ZNKSt6vectorIdSaIdEE4dataEv(ptr noundef nonnull align 8 dereferenceable(24) %0) #0 comdat align 2 {
  %2 = alloca ptr, align 8
  store ptr %0, ptr %2, align 8, !tbaa !1289
  %3 = load ptr, ptr %2, align 8
  %4 = getelementptr inbounds nuw %"struct.std::_Vector_base.132", ptr %3, i32 0, i32 0
  %5 = getelementptr inbounds nuw %"struct.std::_Vector_base<double, std::allocator<double>>::_Vector_impl_data", ptr %4, i32 0, i32 0
  %6 = load ptr, ptr %5, align 8, !tbaa !1293
  %7 = call noundef ptr @_ZNKSt6vectorIdSaIdEE11_M_data_ptrIdEEPT_S4_(ptr noundef nonnull align 8 dereferenceable(24) %3, ptr noundef %6) #5
  ret ptr %7
}

; Function Attrs: mustprogress nounwind uwtable
define linkonce_odr noundef i64 @_ZN8LightGBM12BinaryWriter11AlignedSizeEmm(i64 noundef %0, i64 noundef %1) #0 comdat align 2 {
  %3 = alloca i64, align 8
  %4 = alloca i64, align 8
  %5 = alloca i64, align 8
  store i64 %0, ptr %4, align 8, !tbaa !37
  store i64 %1, ptr %5, align 8, !tbaa !37
  %6 = load i64, ptr %4, align 8, !tbaa !37
  %7 = load i64, ptr %5, align 8, !tbaa !37
  %8 = urem i64 %6, %7
  %9 = icmp eq i64 %8, 0
  br i1 %9, label %10, label %12

10:                                               ; preds = %2
  %11 = load i64, ptr %4, align 8, !tbaa !37
  store i64 %11, ptr %3, align 8
  br label %20

12:                                               ; preds = %2
  %13 = load i64, ptr %4, align 8, !tbaa !37
  %14 = load i64, ptr %5, align 8, !tbaa !37
  %15 = udiv i64 %13, %14
  %16 = load i64, ptr %5, align 8, !tbaa !37
  %17 = mul i64 %15, %16
  %18 = load i64, ptr %5, align 8, !tbaa !37
  %19 = add i64 %17, %18
  store i64 %19, ptr %3, align 8
  br label %20

20:                                               ; preds = %12, %10
  %21 = load i64, ptr %3, align 8
  ret i64 %21
}

; Function Attrs: mustprogress nounwind uwtable
define void @_ZNK8LightGBM9BinMapper6CopyToEPc(ptr noundef nonnull align 8 dereferenceable(160) %0, ptr noundef %1) #0 align 2 {
  %3 = alloca ptr, align 8
  %4 = alloca ptr, align 8
  store ptr %0, ptr %3, align 8, !tbaa !1269
  store ptr %1, ptr %4, align 8, !tbaa !23
  %5 = load ptr, ptr %3, align 8
  %6 = load ptr, ptr %4, align 8, !tbaa !23
  %7 = getelementptr inbounds nuw %"class.LightGBM::BinMapper", ptr %5, i32 0, i32 0
  call void @llvm.memcpy.p0.p0.i64(ptr align 1 %6, ptr align 8 %7, i64 4, i1 false)
  %8 = call noundef i64 @_ZN8LightGBM12BinaryWriter11AlignedSizeEmm(i64 noundef 4, i64 noundef 8)
  %9 = load ptr, ptr %4, align 8, !tbaa !23
  %10 = getelementptr inbounds nuw i8, ptr %9, i64 %8
  store ptr %10, ptr %4, align 8, !tbaa !23
  %11 = load ptr, ptr %4, align 8, !tbaa !23
  %12 = getelementptr inbounds nuw %"class.LightGBM::BinMapper", ptr %5, i32 0, i32 1
  call void @llvm.memcpy.p0.p0.i64(ptr align 1 %11, ptr align 4 %12, i64 4, i1 false)
  %13 = call noundef i64 @_ZN8LightGBM12BinaryWriter11AlignedSizeEmm(i64 noundef 4, i64 noundef 8)
  %14 = load ptr, ptr %4, align 8, !tbaa !23
  %15 = getelementptr inbounds nuw i8, ptr %14, i64 %13
  store ptr %15, ptr %4, align 8, !tbaa !23
  %16 = load ptr, ptr %4, align 8, !tbaa !23
  %17 = getelementptr inbounds nuw %"class.LightGBM::BinMapper", ptr %5, i32 0, i32 3
  call void @llvm.memcpy.p0.p0.i64(ptr align 1 %16, ptr align 8 %17, i64 1, i1 false)
  %18 = call noundef i64 @_ZN8LightGBM12BinaryWriter11AlignedSizeEmm(i64 noundef 1, i64 noundef 8)
  %19 = load ptr, ptr %4, align 8, !tbaa !23
  %20 = getelementptr inbounds nuw i8, ptr %19, i64 %18
  store ptr %20, ptr %4, align 8, !tbaa !23
  %21 = load ptr, ptr %4, align 8, !tbaa !23
  %22 = getelementptr inbounds nuw %"class.LightGBM::BinMapper", ptr %5, i32 0, i32 4
  call void @llvm.memcpy.p0.p0.i64(ptr align 1 %21, ptr align 8 %22, i64 8, i1 false)
  %23 = load ptr, ptr %4, align 8, !tbaa !23
  %24 = getelementptr inbounds nuw i8, ptr %23, i64 8
  store ptr %24, ptr %4, align 8, !tbaa !23
  %25 = load ptr, ptr %4, align 8, !tbaa !23
  %26 = getelementptr inbounds nuw %"class.LightGBM::BinMapper", ptr %5, i32 0, i32 5
  call void @llvm.memcpy.p0.p0.i64(ptr align 1 %25, ptr align 8 %26, i64 4, i1 false)
  %27 = call noundef i64 @_ZN8LightGBM12BinaryWriter11AlignedSizeEmm(i64 noundef 4, i64 noundef 8)
  %28 = load ptr, ptr %4, align 8, !tbaa !23
  %29 = getelementptr inbounds nuw i8, ptr %28, i64 %27
  store ptr %29, ptr %4, align 8, !tbaa !23
  %30 = load ptr, ptr %4, align 8, !tbaa !23
  %31 = getelementptr inbounds nuw %"class.LightGBM::BinMapper", ptr %5, i32 0, i32 8
  call void @llvm.memcpy.p0.p0.i64(ptr align 1 %30, ptr align 8 %31, i64 8, i1 false)
  %32 = load ptr, ptr %4, align 8, !tbaa !23
  %33 = getelementptr inbounds nuw i8, ptr %32, i64 8
  store ptr %33, ptr %4, align 8, !tbaa !23
  %34 = load ptr, ptr %4, align 8, !tbaa !23
  %35 = getelementptr inbounds nuw %"class.LightGBM::BinMapper", ptr %5, i32 0, i32 9
  call void @llvm.memcpy.p0.p0.i64(ptr align 1 %34, ptr align 8 %35, i64 8, i1 false)
  %36 = load ptr, ptr %4, align 8, !tbaa !23
  %37 = getelementptr inbounds nuw i8, ptr %36, i64 8
  store ptr %37, ptr %4, align 8, !tbaa !23
  %38 = load ptr, ptr %4, align 8, !tbaa !23
  %39 = getelementptr inbounds nuw %"class.LightGBM::BinMapper", ptr %5, i32 0, i32 10
  call void @llvm.memcpy.p0.p0.i64(ptr align 1 %38, ptr align 8 %39, i64 4, i1 false)
  %40 = call noundef i64 @_ZN8LightGBM12BinaryWriter11AlignedSizeEmm(i64 noundef 4, i64 noundef 8)
  %41 = load ptr, ptr %4, align 8, !tbaa !23
  %42 = getelementptr inbounds nuw i8, ptr %41, i64 %40
  store ptr %42, ptr %4, align 8, !tbaa !23
  %43 = load ptr, ptr %4, align 8, !tbaa !23
  %44 = getelementptr inbounds nuw %"class.LightGBM::BinMapper", ptr %5, i32 0, i32 11
  call void @llvm.memcpy.p0.p0.i64(ptr align 1 %43, ptr align 4 %44, i64 4, i1 false)
  %45 = call noundef i64 @_ZN8LightGBM12BinaryWriter11AlignedSizeEmm(i64 noundef 4, i64 noundef 8)
  %46 = load ptr, ptr %4, align 8, !tbaa !23
  %47 = getelementptr inbounds nuw i8, ptr %46, i64 %45
  store ptr %47, ptr %4, align 8, !tbaa !23
  %48 = getelementptr inbounds nuw %"class.LightGBM::BinMapper", ptr %5, i32 0, i32 5
  %49 = load i32, ptr %48, align 8, !tbaa !1288
  %50 = icmp eq i32 %49, 0
  br i1 %50, label %51, label %59

51:                                               ; preds = %2
  %52 = load ptr, ptr %4, align 8, !tbaa !23
  %53 = getelementptr inbounds nuw %"class.LightGBM::BinMapper", ptr %5, i32 0, i32 2
  %54 = call noundef ptr @_ZNKSt6vectorIdSaIdEE4dataEv(ptr noundef nonnull align 8 dereferenceable(24) %53) #5
  %55 = getelementptr inbounds nuw %"class.LightGBM::BinMapper", ptr %5, i32 0, i32 0
  %56 = load i32, ptr %55, align 8, !tbaa !1271
  %57 = sext i32 %56 to i64
  %58 = mul i64 %57, 8
  call void @llvm.memcpy.p0.p0.i64(ptr align 1 %52, ptr align 8 %54, i64 %58, i1 false)
  br label %67

59:                                               ; preds = %2
  %60 = load ptr, ptr %4, align 8, !tbaa !23
  %61 = getelementptr inbounds nuw %"class.LightGBM::BinMapper", ptr %5, i32 0, i32 7
  %62 = call noundef ptr @_ZNKSt6vectorIiSaIiEE4dataEv(ptr noundef nonnull align 8 dereferenceable(24) %61) #5
  %63 = getelementptr inbounds nuw %"class.LightGBM::BinMapper", ptr %5, i32 0, i32 0
  %64 = load i32, ptr %63, align 8, !tbaa !1271
  %65 = sext i32 %64 to i64
  %66 = mul i64 %65, 4
  call void @llvm.memcpy.p0.p0.i64(ptr align 1 %60, ptr align 4 %62, i64 %66, i1 false)
  br label %67

67:                                               ; preds = %59, %51
  ret void
}