; Function Attrs: mustprogress nofree norecurse nosync nounwind willreturn memory(readwrite, inaccessiblemem: none) uwtable
define void @_ZNK8LightGBM9BinMapper6CopyToEPc(ptr noundef nonnull readonly align 8 captures(none) dereferenceable(160) %0, ptr noundef writeonly captures(none) initializes((0, 4), (8, 12), (16, 17), (24, 36), (40, 60), (64, 68)) %1) local_unnamed_addr #30 align 2 {
  %3 = load i32, ptr %0, align 8
  store i32 %3, ptr %1, align 1
  %4 = getelementptr inbounds nuw i8, ptr %1, i64 8
  %5 = getelementptr inbounds nuw i8, ptr %0, i64 4
  %6 = load i32, ptr %5, align 4
  store i32 %6, ptr %4, align 1
  %7 = getelementptr inbounds nuw i8, ptr %1, i64 16
  %8 = getelementptr inbounds nuw i8, ptr %0, i64 32
  %9 = load i8, ptr %8, align 8
  store i8 %9, ptr %7, align 1
  %10 = getelementptr inbounds nuw i8, ptr %1, i64 24
  %11 = getelementptr inbounds nuw i8, ptr %0, i64 40
  %12 = load i64, ptr %11, align 8
  store i64 %12, ptr %10, align 1
  %13 = getelementptr inbounds nuw i8, ptr %1, i64 32
  %14 = getelementptr inbounds nuw i8, ptr %0, i64 48
  %15 = load i32, ptr %14, align 8
  store i32 %15, ptr %13, align 1
  %16 = getelementptr inbounds nuw i8, ptr %1, i64 40
  %17 = getelementptr inbounds nuw i8, ptr %0, i64 136
  %18 = load i64, ptr %17, align 8
  store i64 %18, ptr %16, align 1
  %19 = getelementptr inbounds nuw i8, ptr %1, i64 48
  %20 = getelementptr inbounds nuw i8, ptr %0, i64 144
  %21 = load i64, ptr %20, align 8
  store i64 %21, ptr %19, align 1
  %22 = getelementptr inbounds nuw i8, ptr %1, i64 56
  %23 = getelementptr inbounds nuw i8, ptr %0, i64 152
  %24 = load i32, ptr %23, align 8
  store i32 %24, ptr %22, align 1
  %25 = getelementptr inbounds nuw i8, ptr %1, i64 64
  %26 = getelementptr inbounds nuw i8, ptr %0, i64 156
  %27 = load i32, ptr %26, align 4
  store i32 %27, ptr %25, align 1
  %28 = getelementptr inbounds nuw i8, ptr %1, i64 72
  %29 = load i32, ptr %14, align 8, !tbaa !956
  %30 = icmp eq i32 %29, 0
  %31 = load i32, ptr %0, align 8, !tbaa !937
  %32 = sext i32 %31 to i64
  %. = select i1 %30, i64 8, i64 112
  %.24 = select i1 %30, i64 3, i64 2
  %33 = getelementptr inbounds nuw i8, ptr %0, i64 %.
  %34 = load ptr, ptr %33, align 8, !tbaa !1068
  %35 = shl nsw i64 %32, %.24
  tail call void @llvm.memcpy.p0.p0.i64(ptr nonnull align 1 %28, ptr align 4 %34, i64 %35, i1 false)
  ret void
}